target datalayout = "e-m:e-p270:32:32-p271:32:32-p272:64:64-i64:64-i128:128-f80:128-n8:16:32:64-S128"
target triple = "x86_64-pc-linux-gnu"

%"class.std::shared_ptr" = type { %"class.std::__shared_ptr" }
%"class.std::__shared_ptr" = type { ptr, %"class.std::__shared_count" }
%"class.std::__shared_count" = type { ptr }
%"class.open_spiel::catch_::CatchState" = type { %"class.open_spiel::State.base", i32, i32, i8, i32, i32, i32, [4 x i8] }
%"class.open_spiel::State.base" = type <{ ptr, %"class.std::shared_ptr", i32, i32, %"class.std::vector", i32 }>
%"class.std::vector" = type { %"struct.std::_Vector_base" }
%"struct.std::_Vector_base" = type { %"struct.std::_Vector_base<open_spiel::State::PlayerAction, std::allocator<open_spiel::State::PlayerAction>>::_Vector_impl" }
%"struct.std::_Vector_base<open_spiel::State::PlayerAction, std::allocator<open_spiel::State::PlayerAction>>::_Vector_impl" = type { %"struct.std::_Vector_base<open_spiel::State::PlayerAction, std::allocator<open_spiel::State::PlayerAction>>::_Vector_impl_data" }
%"struct.std::_Vector_base<open_spiel::State::PlayerAction, std::allocator<open_spiel::State::PlayerAction>>::_Vector_impl_data" = type { ptr, ptr, ptr }

; Function Attrs: mustprogress nounwind uwtable
define noundef i32 @_ZNK10open_spiel6catch_10CatchState7BoardAtEii(ptr noundef nonnull align 8 dereferenceable(84) %0, i32 noundef %1, i32 noundef %2) #5 align 2 {
  %4 = alloca i32, align 4
  %5 = alloca ptr, align 8
  %6 = alloca i32, align 4
  %7 = alloca i32, align 4
  store ptr %0, ptr %5, align 8
  store i32 %1, ptr %6, align 4
  store i32 %2, ptr %7, align 4
  %8 = load ptr, ptr %5, align 8
  %9 = load i32, ptr %6, align 4
  %10 = getelementptr inbounds nuw %"class.open_spiel::catch_::CatchState", ptr %8, i32 0, i32 1
  %11 = load i32, ptr %10, align 4
  %12 = sub nsw i32 %11, 1
  %13 = icmp eq i32 %9, %12
  br i1 %13, label %14, label %20

14:                                               ; preds = %3
  %15 = load i32, ptr %7, align 4
  %16 = getelementptr inbounds nuw %"class.open_spiel::catch_::CatchState", ptr %8, i32 0, i32 6
  %17 = load i32, ptr %16, align 8
  %18 = icmp eq i32 %15, %17
  br i1 %18, label %19, label %20

19:                                               ; preds = %14
  store i32 2, ptr %4, align 4
  br label %33

20:                                               ; preds = %14, %3
  %21 = load i32, ptr %6, align 4
  %22 = getelementptr inbounds nuw %"class.open_spiel::catch_::CatchState", ptr %8, i32 0, i32 4
  %23 = load i32, ptr %22, align 8
  %24 = icmp eq i32 %21, %23
  br i1 %24, label %25, label %31

25:                                               ; preds = %20
  %26 = load i32, ptr %7, align 4
  %27 = getelementptr inbounds nuw %"class.open_spiel::catch_::CatchState", ptr %8, i32 0, i32 5
  %28 = load i32, ptr %27, align 4
  %29 = icmp eq i32 %26, %28
  br i1 %29, label %30, label %31

30:                                               ; preds = %25
  store i32 1, ptr %4, align 4
  br label %33

31:                                               ; preds = %25, %20
  br label %32

32:                                               ; preds = %31
  store i32 0, ptr %4, align 4
  br label %33

33:                                               ; preds = %32, %30, %19
  %34 = load i32, ptr %4, align 4
  ret i32 %34
}