; Function Attrs: mustprogress nofree norecurse nosync nounwind willreturn memory(argmem: read) uwtable
define noundef range(i32 0, 3) i32 @_ZNK10open_spiel6catch_10CatchState7BoardAtEii(ptr nocapture noundef nonnull readonly align 8 dereferenceable(84) %0, i32 noundef %1, i32 noundef %2) local_unnamed_addr #8 align 2 {
  %4 = getelementptr inbounds nuw i8, ptr %0, i64 60
  %5 = load i32, ptr %4, align 4
  %6 = add nsw i32 %5, -1
  %7 = icmp eq i32 %1, %6
  %8 = getelementptr inbounds nuw i8, ptr %0, i64 80
  %9 = load i32, ptr %8, align 8
  %10 = icmp eq i32 %2, %9
  %or.cond = select i1 %7, i1 %10, i1 false
  br i1 %or.cond, label %18, label %11

11:                                               ; preds = %3
  %12 = getelementptr inbounds nuw i8, ptr %0, i64 72
  %13 = load i32, ptr %12, align 8
  %14 = icmp eq i32 %1, %13
  %15 = getelementptr inbounds nuw i8, ptr %0, i64 76
  %16 = load i32, ptr %15, align 4
  %17 = icmp eq i32 %2, %16
  %or.cond9 = select i1 %14, i1 %17, i1 false
  %spec.select = zext i1 %or.cond9 to i32
  br label %18

18:                                               ; preds = %11, %3
  %.0 = phi i32 [ 2, %3 ], [ %spec.select, %11 ]
  ret i32 %.0
}